target datalayout = "e-m:e-p270:32:32-p271:32:32-p272:64:64-i64:64-i128:128-f80:128-n8:16:32:64-S128"
target triple = "x86_64-pc-linux-gnu"

%struct.expert_field = type { i32, i32 }
%struct._packet_info = type { ptr, ptr, i32, i32, %struct.nstime_t, %struct.nstime_t, %struct.nstime_t, i8, ptr, ptr, ptr, ptr, %struct._address, %struct._address, %struct._address, %struct._address, %struct._address, %struct._address, i32, ptr, i8, [3 x i8], %struct.anon, i32, i32, i32, i32, ptr, i8, ptr, ptr, i16, i16, i32, i32, i16, i32, i32, ptr, ptr, ptr, i8, i8, i16, i16, i16, i32, i16, i16, ptr, ptr, ptr, ptr, ptr, i32, i32 }
%struct.nstime_t = type { i64, i32 }
%struct._address = type { i32, i32, ptr, ptr }
%struct.anon = type { i8, [3 x i8] }

@hf_ciev_indicator_index = internal global i32 0, align 4
@hf_indicator = internal global [20 x i32] zeroinitializer, align 16
@ei_ciev_indicator = internal global %struct.expert_field zeroinitializer, align 4

; Function Attrs: alwaysinline nounwind
define internal ptr @memcpy.inline(ptr noalias %0, ptr noalias %1, i64 %2) #9 {
  %4 = alloca ptr, align 8
  %5 = alloca ptr, align 8
  %6 = alloca i64, align 8
  store ptr %0, ptr %4, align 8
  store ptr %1, ptr %5, align 8
  store i64 %2, ptr %6, align 8
  %7 = load ptr, ptr %4, align 8
  %8 = load ptr, ptr %5, align 8
  %9 = load i64, ptr %6, align 8
  %10 = load ptr, ptr %4, align 8
  %11 = call i64 @llvm.objectsize.i64.p0(ptr %10, i1 false, i1 true, i1 true)
  %12 = call ptr @__memcpy_chk(ptr noundef %7, ptr noundef %8, i64 noundef %9, i64 noundef %11) #12
  ret ptr %12
}

; Function Attrs: null_pointer_is_valid sspstrong uwtable
define internal i32 @get_uint_parameter(ptr noundef %0, ptr noundef %1, i32 noundef %2) #0 {
  %4 = alloca ptr, align 8
  %5 = alloca ptr, align 8
  %6 = alloca i32, align 4
  %7 = alloca i32, align 4
  %8 = alloca ptr, align 8
  store ptr %0, ptr %4, align 8
  store ptr %1, ptr %5, align 8
  store i32 %2, ptr %6, align 4
  call void @llvm.lifetime.start.p0(i64 4, ptr %7) #12
  call void @llvm.lifetime.start.p0(i64 8, ptr %8) #12
  %9 = load ptr, ptr %4, align 8
  %10 = load i32, ptr %6, align 4
  %11 = add i32 %10, 1
  %12 = sext i32 %11 to i64
  %13 = call noalias ptr @wmem_alloc(ptr noundef %9, i64 noundef %12) #13
  store ptr %13, ptr %8, align 8
  %14 = load ptr, ptr %8, align 8
  %15 = load ptr, ptr %5, align 8
  %16 = load i32, ptr %6, align 4
  %17 = sext i32 %16 to i64
  %18 = call ptr @memcpy.inline(ptr noundef %14, ptr noundef %15, i64 noundef %17) #12
  %19 = load ptr, ptr %8, align 8
  %20 = load i32, ptr %6, align 4
  %21 = sext i32 %20 to i64
  %22 = getelementptr i8, ptr %19, i64 %21
  store i8 0, ptr %22, align 1
  %23 = load ptr, ptr %8, align 8
  %24 = call i64 @g_ascii_strtoull(ptr noundef %23, ptr noundef null, i32 noundef 10)
  %25 = trunc i64 %24 to i32
  store i32 %25, ptr %7, align 4
  %26 = load i32, ptr %7, align 4
  call void @llvm.lifetime.end.p0(i64 8, ptr %8) #12
  call void @llvm.lifetime.end.p0(i64 4, ptr %7) #12
  ret i32 %26
}

; Function Attrs: null_pointer_is_valid sspstrong uwtable
define internal zeroext i1 @dissect_ciev_parameter(ptr noundef %0, ptr noundef %1, ptr noundef %2, i32 noundef %3, i32 noundef %4, i16 noundef zeroext %5, ptr noundef %6, i32 noundef %7, i32 noundef %8, ptr noundef %9, ptr noundef %10) #0 {
  %12 = alloca i1, align 1
  %13 = alloca ptr, align 8
  %14 = alloca ptr, align 8
  %15 = alloca ptr, align 8
  %16 = alloca i32, align 4
  %17 = alloca i32, align 4
  %18 = alloca i16, align 2
  %19 = alloca ptr, align 8
  %20 = alloca i32, align 4
  %21 = alloca i32, align 4
  %22 = alloca ptr, align 8
  %23 = alloca ptr, align 8
  %24 = alloca i32, align 4
  %25 = alloca i32, align 4
  %26 = alloca i32, align 4
  store ptr %0, ptr %13, align 8
  store ptr %1, ptr %14, align 8
  store ptr %2, ptr %15, align 8
  store i32 %3, ptr %16, align 4
  store i32 %4, ptr %17, align 4
  store i16 %5, ptr %18, align 2
  store ptr %6, ptr %19, align 8
  store i32 %7, ptr %20, align 4
  store i32 %8, ptr %21, align 4
  store ptr %9, ptr %22, align 8
  store ptr %10, ptr %23, align 8
  call void @llvm.lifetime.start.p0(i64 4, ptr %24) #12
  call void @llvm.lifetime.start.p0(i64 4, ptr %25) #12
  %27 = load i32, ptr %17, align 4
  %28 = icmp eq i32 %27, 1
  br i1 %28, label %29, label %33

29:                                               ; preds = %11
  %30 = load i16, ptr %18, align 2
  %31 = zext i16 %30 to i32
  %32 = icmp eq i32 %31, 58
  br i1 %32, label %34, label %33

33:                                               ; preds = %29, %11
  store i1 true, ptr %12, align 1
  store i32 1, ptr %26, align 4
  br label %88

34:                                               ; preds = %29
  %35 = load i32, ptr %20, align 4
  %36 = icmp ugt i32 %35, 1
  br i1 %36, label %37, label %38

37:                                               ; preds = %34
  store i1 false, ptr %12, align 1
  store i32 1, ptr %26, align 4
  br label %88

38:                                               ; preds = %34
  %39 = load i32, ptr %20, align 4
  switch i32 %39, label %87 [
    i32 0, label %40
    i32 1, label %62
  ]

40:                                               ; preds = %38
  %41 = load ptr, ptr %14, align 8
  %42 = getelementptr inbounds nuw %struct._packet_info, ptr %41, i32 0, i32 51
  %43 = load ptr, ptr %42, align 8
  %44 = load ptr, ptr %19, align 8
  %45 = load i32, ptr %21, align 4
  %46 = call i32 @get_uint_parameter(ptr noundef %43, ptr noundef %44, i32 noundef %45)
  store i32 %46, ptr %24, align 4
  %47 = load ptr, ptr %15, align 8
  %48 = load i32, ptr @hf_ciev_indicator_index, align 4
  %49 = load ptr, ptr %13, align 8
  %50 = load i32, ptr %16, align 4
  %51 = load i32, ptr %21, align 4
  %52 = load i32, ptr %24, align 4
  %53 = call ptr @proto_tree_add_uint(ptr noundef %47, i32 noundef %48, ptr noundef %49, i32 noundef %50, i32 noundef %51, i32 noundef %52)
  %54 = load ptr, ptr %14, align 8
  %55 = getelementptr inbounds nuw %struct._packet_info, ptr %54, i32 0, i32 51
  %56 = load ptr, ptr %55, align 8
  %57 = call noalias ptr @wmem_alloc(ptr noundef %56, i64 noundef 4) #13
  %58 = load ptr, ptr %23, align 8
  store ptr %57, ptr %58, align 8
  %59 = load i32, ptr %24, align 4
  %60 = load ptr, ptr %23, align 8
  %61 = load ptr, ptr %60, align 8
  store i32 %59, ptr %61, align 4
  br label %87

62:                                               ; preds = %38
  %63 = load ptr, ptr %23, align 8
  %64 = load ptr, ptr %63, align 8
  %65 = load i32, ptr %64, align 4
  %66 = sub i32 %65, 1
  store i32 %66, ptr %25, align 4
  %67 = load i32, ptr %25, align 4
  %68 = icmp ugt i32 %67, 19
  br i1 %68, label %69, label %76

69:                                               ; preds = %62
  %70 = load ptr, ptr %15, align 8
  %71 = load ptr, ptr %14, align 8
  %72 = load ptr, ptr %13, align 8
  %73 = load i32, ptr %16, align 4
  %74 = load i32, ptr %21, align 4
  %75 = call ptr @proto_tree_add_expert(ptr noundef %70, ptr noundef %71, ptr noundef @ei_ciev_indicator, ptr noundef %72, i32 noundef %73, i32 noundef %74)
  br label %86

76:                                               ; preds = %62
  %77 = load ptr, ptr %15, align 8
  %78 = load i32, ptr %25, align 4
  %79 = zext i32 %78 to i64
  %80 = getelementptr [20 x i32], ptr @hf_indicator, i64 0, i64 %79
  %81 = load i32, ptr %80, align 4
  %82 = load ptr, ptr %13, align 8
  %83 = load i32, ptr %16, align 4
  %84 = load i32, ptr %21, align 4
  %85 = call ptr @proto_tree_add_item(ptr noundef %77, i32 noundef %81, ptr noundef %82, i32 noundef %83, i32 noundef %84, i32 noundef 0)
  br label %86

86:                                               ; preds = %76, %69
  br label %87

87:                                               ; preds = %38, %86, %40
  store i1 true, ptr %12, align 1
  store i32 1, ptr %26, align 4
  br label %88

88:                                               ; preds = %87, %37, %33
  call void @llvm.lifetime.end.p0(i64 4, ptr %25) #12
  call void @llvm.lifetime.end.p0(i64 4, ptr %24) #12
  %89 = load i1, ptr %12, align 1
  ret i1 %89
}