; Function Attrs: null_pointer_is_valid sspstrong uwtable
define internal noundef zeroext i1 @dissect_ciev_parameter(ptr noundef %0, ptr noundef %1, ptr noundef %2, i32 noundef %3, i32 noundef %4, i16 noundef zeroext %5, ptr noundef readonly captures(none) %6, i32 noundef %7, i32 noundef %8, ptr readnone captures(none) %9, ptr noundef captures(none) %10) #0 {
  %12 = icmp eq i32 %4, 1
  %13 = icmp eq i16 %5, 58
  %or.cond = and i1 %12, %13
  br i1 %or.cond, label %14, label %45

14:                                               ; preds = %11
  %15 = icmp ugt i32 %7, 1
  br i1 %15, label %45, label %16

16:                                               ; preds = %14
  %trunc = trunc nuw i32 %7 to i1
  br i1 %trunc, label %33, label %17

17:                                               ; preds = %16
  %18 = getelementptr inbounds nuw i8, ptr %1, i64 408
  %19 = load ptr, ptr %18, align 8
  %20 = add i32 %8, 1
  %21 = sext i32 %20 to i64
  %22 = tail call noalias ptr @wmem_alloc(ptr noundef %19, i64 noundef %21) #12
  %23 = sext i32 %8 to i64
  %24 = icmp ne i32 %20, -1
  tail call void @llvm.assume(i1 %24)
  %25 = tail call ptr @__memcpy_chk(ptr noundef %22, ptr noundef readonly %6, i64 noundef range(i64 -2147483648, 2147483648) %23, i64 noundef %21) #13, !alias.scope !30
  %26 = getelementptr i8, ptr %22, i64 %23
  store i8 0, ptr %26, align 1
  %27 = tail call i64 @g_ascii_strtoull(ptr noundef %22, ptr noundef null, i32 noundef 10)
  %28 = trunc i64 %27 to i32
  %29 = load i32, ptr @hf_ciev_indicator_index, align 4
  %30 = tail call ptr @proto_tree_add_uint(ptr noundef %2, i32 noundef %29, ptr noundef %0, i32 noundef %3, i32 noundef %8, i32 noundef %28)
  %31 = load ptr, ptr %18, align 8
  %32 = tail call noalias dereferenceable_or_null(4) ptr @wmem_alloc(ptr noundef %31, i64 noundef 4) #12
  store ptr %32, ptr %10, align 8
  store i32 %28, ptr %32, align 4
  br label %45

33:                                               ; preds = %16
  %34 = load ptr, ptr %10, align 8
  %35 = load i32, ptr %34, align 4
  %36 = add i32 %35, -1
  %37 = icmp ugt i32 %36, 19
  br i1 %37, label %38, label %40

38:                                               ; preds = %33
  %39 = tail call ptr @proto_tree_add_expert(ptr noundef %2, ptr noundef %1, ptr noundef nonnull @ei_ciev_indicator, ptr noundef %0, i32 noundef %3, i32 noundef %8)
  br label %45

40:                                               ; preds = %33
  %41 = zext nneg i32 %36 to i64
  %42 = getelementptr [20 x i32], ptr @hf_indicator, i64 0, i64 %41
  %43 = load i32, ptr %42, align 4
  %44 = tail call ptr @proto_tree_add_item(ptr noundef %2, i32 noundef %43, ptr noundef %0, i32 noundef %3, i32 noundef %8, i32 noundef 0)
  br label %45

45:                                               ; preds = %17, %40, %38, %14, %11
  %.0 = phi i1 [ true, %11 ], [ false, %14 ], [ true, %38 ], [ true, %40 ], [ true, %17 ]
  ret i1 %.0
}